; Function Attrs: nounwind uwtable
define internal fastcc noundef range(i32 -128, 300) i32 @enter(i32 noundef returned range(i32 -128, 300) %0, ptr noundef captures(none) %1) unnamed_addr #0 {
  switch i32 %0, label %7 [
    i32 40, label %3
    i32 91, label %4
    i32 123, label %5
    i32 299, label %6
  ]

3:                                                ; preds = %2
  br label %7

4:                                                ; preds = %2
  br label %7

5:                                                ; preds = %2
  br label %7

6:                                                ; preds = %2
  br label %7

7:                                                ; preds = %6, %5, %4, %3, %2
  %.0 = phi i32 [ 1, %2 ], [ 9, %6 ], [ 7, %5 ], [ 5, %4 ], [ 3, %3 ]
  %8 = getelementptr inbounds nuw i8, ptr %1, i64 84
  %9 = load i32, ptr %8, align 4, !tbaa !63
  %10 = getelementptr inbounds nuw i8, ptr %1, i64 88
  %11 = load i32, ptr %10, align 8, !tbaa !64
  %.not.i = icmp slt i32 %9, %11
  br i1 %.not.i, label %._crit_edge.i, label %12

._crit_edge.i:                                    ; preds = %7
  %.phi.trans.insert.i = getelementptr inbounds nuw i8, ptr %1, i64 96
  %.pre.i = load ptr, ptr %.phi.trans.insert.i, align 8, !tbaa !65
  br label %yy_push_state.exit

12:                                               ; preds = %7
  %13 = add nsw i32 %11, 25
  store i32 %13, ptr %10, align 8, !tbaa !64
  %14 = sext i32 %13 to i64
  %15 = shl nsw i64 %14, 2
  %16 = getelementptr inbounds nuw i8, ptr %1, i64 96
  %17 = load ptr, ptr %16, align 8, !tbaa !65
  %.not20.i = icmp eq ptr %17, null
  br i1 %.not20.i, label %18, label %20

18:                                               ; preds = %12
  %19 = tail call ptr @jv_mem_alloc(i64 noundef %15) #17
  br label %22

20:                                               ; preds = %12
  %21 = tail call ptr @jv_mem_realloc(ptr noundef nonnull %17, i64 noundef %15) #17
  br label %22

22:                                               ; preds = %20, %18
  %storemerge.i = phi ptr [ %19, %18 ], [ %21, %20 ]
  store ptr %storemerge.i, ptr %16, align 8, !tbaa !65
  %.not21.i = icmp eq ptr %storemerge.i, null
  br i1 %.not21.i, label %23, label %._crit_edge22.i

._crit_edge22.i:                                  ; preds = %22
  %.pre23.i = load i32, ptr %8, align 4, !tbaa !63
  br label %yy_push_state.exit

23:                                               ; preds = %22
  tail call fastcc void @yy_fatal_error(ptr noundef nonnull @.str.14) #18
  unreachable

yy_push_state.exit:                               ; preds = %._crit_edge.i, %._crit_edge22.i
  %24 = phi i32 [ %9, %._crit_edge.i ], [ %.pre23.i, %._crit_edge22.i ]
  %25 = phi ptr [ %.pre.i, %._crit_edge.i ], [ %storemerge.i, %._crit_edge22.i ]
  %26 = getelementptr inbounds nuw i8, ptr %1, i64 76
  %27 = load i32, ptr %26, align 4, !tbaa !18
  %28 = add nsw i32 %27, -1
  %29 = sdiv i32 %28, 2
  %30 = add nsw i32 %24, 1
  store i32 %30, ptr %8, align 4, !tbaa !63
  %31 = sext i32 %24 to i64
  %32 = getelementptr inbounds i32, ptr %25, i64 %31
  store i32 %29, ptr %32, align 4, !tbaa !60
  store i32 %.0, ptr %26, align 4, !tbaa !18
  ret i32 %0
}